target datalayout = "e-m:e-p270:32:32-p271:32:32-p272:64:64-i64:64-i128:128-f80:128-n8:16:32:64-S128"
target triple = "x86_64-pc-linux-gnu"

%struct.GetByteContext = type { ptr, ptr, ptr }

; Function Attrs: alwaysinline nounwind willreturn memory(none) uwtable
define internal i32 @av_bswap32(i32 noundef %0) #4 {
  %2 = alloca i32, align 4
  store i32 %0, ptr %2, align 4, !tbaa !4
  %3 = load i32, ptr %2, align 4, !tbaa !4
  %4 = shl i32 %3, 8
  %5 = and i32 %4, 65280
  %6 = load i32, ptr %2, align 4, !tbaa !4
  %7 = lshr i32 %6, 8
  %8 = and i32 %7, 255
  %9 = or i32 %5, %8
  %10 = shl i32 %9, 16
  %11 = load i32, ptr %2, align 4, !tbaa !4
  %12 = lshr i32 %11, 16
  %13 = shl i32 %12, 8
  %14 = and i32 %13, 65280
  %15 = load i32, ptr %2, align 4, !tbaa !4
  %16 = lshr i32 %15, 16
  %17 = lshr i32 %16, 8
  %18 = and i32 %17, 255
  %19 = or i32 %14, %18
  %20 = or i32 %10, %19
  ret i32 %20
}

; Function Attrs: alwaysinline nounwind willreturn memory(none) uwtable
define internal zeroext i16 @av_bswap16(i16 noundef zeroext %0) #4 {
  %2 = alloca i16, align 2
  store i16 %0, ptr %2, align 2, !tbaa !8
  %3 = load i16, ptr %2, align 2, !tbaa !8
  %4 = zext i16 %3 to i32
  %5 = ashr i32 %4, 8
  %6 = load i16, ptr %2, align 2, !tbaa !8
  %7 = zext i16 %6 to i32
  %8 = shl i32 %7, 8
  %9 = or i32 %5, %8
  %10 = trunc i32 %9 to i16
  store i16 %10, ptr %2, align 2, !tbaa !8
  %11 = load i16, ptr %2, align 2, !tbaa !8
  ret i16 %11
}

; Function Attrs: alwaysinline nounwind uwtable
define internal i32 @bytestream_get_be32(ptr noundef %0) #2 {
  %2 = alloca ptr, align 8
  store ptr %0, ptr %2, align 8, !tbaa !34
  %3 = load ptr, ptr %2, align 8, !tbaa !34
  %4 = load ptr, ptr %3, align 8, !tbaa !20
  %5 = getelementptr inbounds i8, ptr %4, i64 4
  store ptr %5, ptr %3, align 8, !tbaa !20
  %6 = load ptr, ptr %2, align 8, !tbaa !34
  %7 = load ptr, ptr %6, align 8, !tbaa !20
  %8 = getelementptr inbounds i8, ptr %7, i64 -4
  %9 = load i32, ptr %8, align 1, !tbaa !19
  %10 = call i32 @av_bswap32(i32 noundef %9) #9
  ret i32 %10
}

; Function Attrs: alwaysinline nounwind uwtable
define internal i32 @bytestream_get_le32(ptr noundef %0) #2 {
  %2 = alloca ptr, align 8
  store ptr %0, ptr %2, align 8, !tbaa !34
  %3 = load ptr, ptr %2, align 8, !tbaa !34
  %4 = load ptr, ptr %3, align 8, !tbaa !20
  %5 = getelementptr inbounds i8, ptr %4, i64 4
  store ptr %5, ptr %3, align 8, !tbaa !20
  %6 = load ptr, ptr %2, align 8, !tbaa !34
  %7 = load ptr, ptr %6, align 8, !tbaa !20
  %8 = getelementptr inbounds i8, ptr %7, i64 -4
  %9 = load i32, ptr %8, align 1, !tbaa !19
  ret i32 %9
}

; Function Attrs: alwaysinline nounwind uwtable
define internal i32 @bytestream_get_be16(ptr noundef %0) #2 {
  %2 = alloca ptr, align 8
  store ptr %0, ptr %2, align 8, !tbaa !34
  %3 = load ptr, ptr %2, align 8, !tbaa !34
  %4 = load ptr, ptr %3, align 8, !tbaa !20
  %5 = getelementptr inbounds i8, ptr %4, i64 2
  store ptr %5, ptr %3, align 8, !tbaa !20
  %6 = load ptr, ptr %2, align 8, !tbaa !34
  %7 = load ptr, ptr %6, align 8, !tbaa !20
  %8 = getelementptr inbounds i8, ptr %7, i64 -2
  %9 = load i16, ptr %8, align 1, !tbaa !19
  %10 = call zeroext i16 @av_bswap16(i16 noundef zeroext %9) #9
  %11 = zext i16 %10 to i32
  ret i32 %11
}

; Function Attrs: alwaysinline nounwind uwtable
define internal i32 @bytestream_get_le16(ptr noundef %0) #2 {
  %2 = alloca ptr, align 8
  store ptr %0, ptr %2, align 8, !tbaa !34
  %3 = load ptr, ptr %2, align 8, !tbaa !34
  %4 = load ptr, ptr %3, align 8, !tbaa !20
  %5 = getelementptr inbounds i8, ptr %4, i64 2
  store ptr %5, ptr %3, align 8, !tbaa !20
  %6 = load ptr, ptr %2, align 8, !tbaa !34
  %7 = load ptr, ptr %6, align 8, !tbaa !20
  %8 = getelementptr inbounds i8, ptr %7, i64 -2
  %9 = load i16, ptr %8, align 1, !tbaa !19
  %10 = zext i16 %9 to i32
  ret i32 %10
}

; Function Attrs: alwaysinline nounwind uwtable
define internal i32 @bytestream2_get_be32u(ptr noundef %0) #2 {
  %2 = alloca ptr, align 8
  store ptr %0, ptr %2, align 8, !tbaa !12
  %3 = load ptr, ptr %2, align 8, !tbaa !12
  %4 = getelementptr inbounds nuw %struct.GetByteContext, ptr %3, i32 0, i32 0
  %5 = call i32 @bytestream_get_be32(ptr noundef %4)
  ret i32 %5
}

; Function Attrs: alwaysinline nounwind uwtable
define internal i32 @bytestream2_get_le32u(ptr noundef %0) #2 {
  %2 = alloca ptr, align 8
  store ptr %0, ptr %2, align 8, !tbaa !12
  %3 = load ptr, ptr %2, align 8, !tbaa !12
  %4 = getelementptr inbounds nuw %struct.GetByteContext, ptr %3, i32 0, i32 0
  %5 = call i32 @bytestream_get_le32(ptr noundef %4)
  ret i32 %5
}

; Function Attrs: alwaysinline nounwind uwtable
define internal i32 @bytestream2_get_be16u(ptr noundef %0) #2 {
  %2 = alloca ptr, align 8
  store ptr %0, ptr %2, align 8, !tbaa !12
  %3 = load ptr, ptr %2, align 8, !tbaa !12
  %4 = getelementptr inbounds nuw %struct.GetByteContext, ptr %3, i32 0, i32 0
  %5 = call i32 @bytestream_get_be16(ptr noundef %4)
  ret i32 %5
}

; Function Attrs: alwaysinline nounwind uwtable
define internal i32 @bytestream2_get_le16u(ptr noundef %0) #2 {
  %2 = alloca ptr, align 8
  store ptr %0, ptr %2, align 8, !tbaa !12
  %3 = load ptr, ptr %2, align 8, !tbaa !12
  %4 = getelementptr inbounds nuw %struct.GetByteContext, ptr %3, i32 0, i32 0
  %5 = call i32 @bytestream_get_le16(ptr noundef %4)
  ret i32 %5
}

; Function Attrs: alwaysinline nounwind uwtable
define internal i32 @bytestream_get_byte(ptr noundef %0) #2 {
  %2 = alloca ptr, align 8
  store ptr %0, ptr %2, align 8, !tbaa !34
  %3 = load ptr, ptr %2, align 8, !tbaa !34
  %4 = load ptr, ptr %3, align 8, !tbaa !20
  %5 = getelementptr inbounds i8, ptr %4, i64 1
  store ptr %5, ptr %3, align 8, !tbaa !20
  %6 = load ptr, ptr %2, align 8, !tbaa !34
  %7 = load ptr, ptr %6, align 8, !tbaa !20
  %8 = getelementptr inbounds i8, ptr %7, i64 -1
  %9 = getelementptr inbounds i8, ptr %8, i64 0
  %10 = load i8, ptr %9, align 1, !tbaa !19
  %11 = zext i8 %10 to i32
  ret i32 %11
}

; Function Attrs: alwaysinline nounwind uwtable
define internal i32 @bytestream2_get_be32(ptr noundef %0) #2 {
  %2 = alloca i32, align 4
  %3 = alloca ptr, align 8
  store ptr %0, ptr %3, align 8, !tbaa !12
  %4 = load ptr, ptr %3, align 8, !tbaa !12
  %5 = getelementptr inbounds nuw %struct.GetByteContext, ptr %4, i32 0, i32 1
  %6 = load ptr, ptr %5, align 8, !tbaa !15
  %7 = load ptr, ptr %3, align 8, !tbaa !12
  %8 = getelementptr inbounds nuw %struct.GetByteContext, ptr %7, i32 0, i32 0
  %9 = load ptr, ptr %8, align 8, !tbaa !18
  %10 = ptrtoint ptr %6 to i64
  %11 = ptrtoint ptr %9 to i64
  %12 = sub i64 %10, %11
  %13 = icmp slt i64 %12, 4
  br i1 %13, label %14, label %20

14:                                               ; preds = %1
  %15 = load ptr, ptr %3, align 8, !tbaa !12
  %16 = getelementptr inbounds nuw %struct.GetByteContext, ptr %15, i32 0, i32 1
  %17 = load ptr, ptr %16, align 8, !tbaa !15
  %18 = load ptr, ptr %3, align 8, !tbaa !12
  %19 = getelementptr inbounds nuw %struct.GetByteContext, ptr %18, i32 0, i32 0
  store ptr %17, ptr %19, align 8, !tbaa !18
  store i32 0, ptr %2, align 4
  br label %23

20:                                               ; preds = %1
  %21 = load ptr, ptr %3, align 8, !tbaa !12
  %22 = call i32 @bytestream2_get_be32u(ptr noundef %21)
  store i32 %22, ptr %2, align 4
  br label %23

23:                                               ; preds = %20, %14
  %24 = load i32, ptr %2, align 4
  ret i32 %24
}

; Function Attrs: alwaysinline nounwind uwtable
define internal i32 @bytestream2_get_le32(ptr noundef %0) #2 {
  %2 = alloca i32, align 4
  %3 = alloca ptr, align 8
  store ptr %0, ptr %3, align 8, !tbaa !12
  %4 = load ptr, ptr %3, align 8, !tbaa !12
  %5 = getelementptr inbounds nuw %struct.GetByteContext, ptr %4, i32 0, i32 1
  %6 = load ptr, ptr %5, align 8, !tbaa !15
  %7 = load ptr, ptr %3, align 8, !tbaa !12
  %8 = getelementptr inbounds nuw %struct.GetByteContext, ptr %7, i32 0, i32 0
  %9 = load ptr, ptr %8, align 8, !tbaa !18
  %10 = ptrtoint ptr %6 to i64
  %11 = ptrtoint ptr %9 to i64
  %12 = sub i64 %10, %11
  %13 = icmp slt i64 %12, 4
  br i1 %13, label %14, label %20

14:                                               ; preds = %1
  %15 = load ptr, ptr %3, align 8, !tbaa !12
  %16 = getelementptr inbounds nuw %struct.GetByteContext, ptr %15, i32 0, i32 1
  %17 = load ptr, ptr %16, align 8, !tbaa !15
  %18 = load ptr, ptr %3, align 8, !tbaa !12
  %19 = getelementptr inbounds nuw %struct.GetByteContext, ptr %18, i32 0, i32 0
  store ptr %17, ptr %19, align 8, !tbaa !18
  store i32 0, ptr %2, align 4
  br label %23

20:                                               ; preds = %1
  %21 = load ptr, ptr %3, align 8, !tbaa !12
  %22 = call i32 @bytestream2_get_le32u(ptr noundef %21)
  store i32 %22, ptr %2, align 4
  br label %23

23:                                               ; preds = %20, %14
  %24 = load i32, ptr %2, align 4
  ret i32 %24
}

; Function Attrs: alwaysinline nounwind uwtable
define internal i32 @bytestream2_get_be16(ptr noundef %0) #2 {
  %2 = alloca i32, align 4
  %3 = alloca ptr, align 8
  store ptr %0, ptr %3, align 8, !tbaa !12
  %4 = load ptr, ptr %3, align 8, !tbaa !12
  %5 = getelementptr inbounds nuw %struct.GetByteContext, ptr %4, i32 0, i32 1
  %6 = load ptr, ptr %5, align 8, !tbaa !15
  %7 = load ptr, ptr %3, align 8, !tbaa !12
  %8 = getelementptr inbounds nuw %struct.GetByteContext, ptr %7, i32 0, i32 0
  %9 = load ptr, ptr %8, align 8, !tbaa !18
  %10 = ptrtoint ptr %6 to i64
  %11 = ptrtoint ptr %9 to i64
  %12 = sub i64 %10, %11
  %13 = icmp slt i64 %12, 2
  br i1 %13, label %14, label %20

14:                                               ; preds = %1
  %15 = load ptr, ptr %3, align 8, !tbaa !12
  %16 = getelementptr inbounds nuw %struct.GetByteContext, ptr %15, i32 0, i32 1
  %17 = load ptr, ptr %16, align 8, !tbaa !15
  %18 = load ptr, ptr %3, align 8, !tbaa !12
  %19 = getelementptr inbounds nuw %struct.GetByteContext, ptr %18, i32 0, i32 0
  store ptr %17, ptr %19, align 8, !tbaa !18
  store i32 0, ptr %2, align 4
  br label %23

20:                                               ; preds = %1
  %21 = load ptr, ptr %3, align 8, !tbaa !12
  %22 = call i32 @bytestream2_get_be16u(ptr noundef %21)
  store i32 %22, ptr %2, align 4
  br label %23

23:                                               ; preds = %20, %14
  %24 = load i32, ptr %2, align 4
  ret i32 %24
}

; Function Attrs: alwaysinline nounwind uwtable
define internal i32 @bytestream2_get_le16(ptr noundef %0) #2 {
  %2 = alloca i32, align 4
  %3 = alloca ptr, align 8
  store ptr %0, ptr %3, align 8, !tbaa !12
  %4 = load ptr, ptr %3, align 8, !tbaa !12
  %5 = getelementptr inbounds nuw %struct.GetByteContext, ptr %4, i32 0, i32 1
  %6 = load ptr, ptr %5, align 8, !tbaa !15
  %7 = load ptr, ptr %3, align 8, !tbaa !12
  %8 = getelementptr inbounds nuw %struct.GetByteContext, ptr %7, i32 0, i32 0
  %9 = load ptr, ptr %8, align 8, !tbaa !18
  %10 = ptrtoint ptr %6 to i64
  %11 = ptrtoint ptr %9 to i64
  %12 = sub i64 %10, %11
  %13 = icmp slt i64 %12, 2
  br i1 %13, label %14, label %20

14:                                               ; preds = %1
  %15 = load ptr, ptr %3, align 8, !tbaa !12
  %16 = getelementptr inbounds nuw %struct.GetByteContext, ptr %15, i32 0, i32 1
  %17 = load ptr, ptr %16, align 8, !tbaa !15
  %18 = load ptr, ptr %3, align 8, !tbaa !12
  %19 = getelementptr inbounds nuw %struct.GetByteContext, ptr %18, i32 0, i32 0
  store ptr %17, ptr %19, align 8, !tbaa !18
  store i32 0, ptr %2, align 4
  br label %23

20:                                               ; preds = %1
  %21 = load ptr, ptr %3, align 8, !tbaa !12
  %22 = call i32 @bytestream2_get_le16u(ptr noundef %21)
  store i32 %22, ptr %2, align 4
  br label %23

23:                                               ; preds = %20, %14
  %24 = load i32, ptr %2, align 4
  ret i32 %24
}

; Function Attrs: alwaysinline nounwind uwtable
define internal i32 @bytestream2_get_byteu(ptr noundef %0) #2 {
  %2 = alloca ptr, align 8
  store ptr %0, ptr %2, align 8, !tbaa !12
  %3 = load ptr, ptr %2, align 8, !tbaa !12
  %4 = getelementptr inbounds nuw %struct.GetByteContext, ptr %3, i32 0, i32 0
  %5 = call i32 @bytestream_get_byte(ptr noundef %4)
  ret i32 %5
}

; Function Attrs: nounwind uwtable
define i32 @ff_tget_long(ptr noundef %0, i32 noundef %1) #0 {
  %3 = alloca ptr, align 8
  %4 = alloca i32, align 4
  store ptr %0, ptr %3, align 8, !tbaa !12
  store i32 %1, ptr %4, align 4, !tbaa !4
  %5 = load i32, ptr %4, align 4, !tbaa !4
  %6 = icmp ne i32 %5, 0
  br i1 %6, label %7, label %10

7:                                                ; preds = %2
  %8 = load ptr, ptr %3, align 8, !tbaa !12
  %9 = call i32 @bytestream2_get_le32(ptr noundef %8)
  br label %13

10:                                               ; preds = %2
  %11 = load ptr, ptr %3, align 8, !tbaa !12
  %12 = call i32 @bytestream2_get_be32(ptr noundef %11)
  br label %13

13:                                               ; preds = %10, %7
  %14 = phi i32 [ %9, %7 ], [ %12, %10 ]
  ret i32 %14
}

; Function Attrs: nounwind uwtable
define i32 @ff_tget_short(ptr noundef %0, i32 noundef %1) #0 {
  %3 = alloca ptr, align 8
  %4 = alloca i32, align 4
  store ptr %0, ptr %3, align 8, !tbaa !12
  store i32 %1, ptr %4, align 4, !tbaa !4
  %5 = load i32, ptr %4, align 4, !tbaa !4
  %6 = icmp ne i32 %5, 0
  br i1 %6, label %7, label %10

7:                                                ; preds = %2
  %8 = load ptr, ptr %3, align 8, !tbaa !12
  %9 = call i32 @bytestream2_get_le16(ptr noundef %8)
  br label %13

10:                                               ; preds = %2
  %11 = load ptr, ptr %3, align 8, !tbaa !12
  %12 = call i32 @bytestream2_get_be16(ptr noundef %11)
  br label %13

13:                                               ; preds = %10, %7
  %14 = phi i32 [ %9, %7 ], [ %12, %10 ]
  ret i32 %14
}

; Function Attrs: alwaysinline nounwind uwtable
define internal i32 @bytestream2_get_byte(ptr noundef %0) #2 {
  %2 = alloca i32, align 4
  %3 = alloca ptr, align 8
  store ptr %0, ptr %3, align 8, !tbaa !12
  %4 = load ptr, ptr %3, align 8, !tbaa !12
  %5 = getelementptr inbounds nuw %struct.GetByteContext, ptr %4, i32 0, i32 1
  %6 = load ptr, ptr %5, align 8, !tbaa !15
  %7 = load ptr, ptr %3, align 8, !tbaa !12
  %8 = getelementptr inbounds nuw %struct.GetByteContext, ptr %7, i32 0, i32 0
  %9 = load ptr, ptr %8, align 8, !tbaa !18
  %10 = ptrtoint ptr %6 to i64
  %11 = ptrtoint ptr %9 to i64
  %12 = sub i64 %10, %11
  %13 = icmp slt i64 %12, 1
  br i1 %13, label %14, label %20

14:                                               ; preds = %1
  %15 = load ptr, ptr %3, align 8, !tbaa !12
  %16 = getelementptr inbounds nuw %struct.GetByteContext, ptr %15, i32 0, i32 1
  %17 = load ptr, ptr %16, align 8, !tbaa !15
  %18 = load ptr, ptr %3, align 8, !tbaa !12
  %19 = getelementptr inbounds nuw %struct.GetByteContext, ptr %18, i32 0, i32 0
  store ptr %17, ptr %19, align 8, !tbaa !18
  store i32 0, ptr %2, align 4
  br label %23

20:                                               ; preds = %1
  %21 = load ptr, ptr %3, align 8, !tbaa !12
  %22 = call i32 @bytestream2_get_byteu(ptr noundef %21)
  store i32 %22, ptr %2, align 4
  br label %23

23:                                               ; preds = %20, %14
  %24 = load i32, ptr %2, align 4
  ret i32 %24
}

; Function Attrs: nounwind uwtable
define i32 @ff_tget(ptr noundef %0, i32 noundef %1, i32 noundef %2) #0 {
  %4 = alloca i32, align 4
  %5 = alloca ptr, align 8
  %6 = alloca i32, align 4
  %7 = alloca i32, align 4
  store ptr %0, ptr %5, align 8, !tbaa !12
  store i32 %1, ptr %6, align 4, !tbaa !4
  store i32 %2, ptr %7, align 4, !tbaa !4
  %8 = load i32, ptr %6, align 4, !tbaa !4
  switch i32 %8, label %20 [
    i32 1, label %9
    i32 3, label %12
    i32 4, label %16
  ]

9:                                                ; preds = %3
  %10 = load ptr, ptr %5, align 8, !tbaa !12
  %11 = call i32 @bytestream2_get_byte(ptr noundef %10)
  store i32 %11, ptr %4, align 4
  br label %21

12:                                               ; preds = %3
  %13 = load ptr, ptr %5, align 8, !tbaa !12
  %14 = load i32, ptr %7, align 4, !tbaa !4
  %15 = call i32 @ff_tget_short(ptr noundef %13, i32 noundef %14)
  store i32 %15, ptr %4, align 4
  br label %21

16:                                               ; preds = %3
  %17 = load ptr, ptr %5, align 8, !tbaa !12
  %18 = load i32, ptr %7, align 4, !tbaa !4
  %19 = call i32 @ff_tget_long(ptr noundef %17, i32 noundef %18)
  store i32 %19, ptr %4, align 4
  br label %21

20:                                               ; preds = %3
  store i32 -1, ptr %4, align 4
  br label %21

21:                                               ; preds = %20, %16, %12, %9
  %22 = load i32, ptr %4, align 4
  ret i32 %22
}