; Function Attrs: mustprogress nofree norecurse nosync nounwind willreturn memory(read, argmem: readwrite, inaccessiblemem: none) uwtable
define i32 @ff_tget(ptr noundef captures(none) %0, i32 noundef %1, i32 noundef %2) local_unnamed_addr #2 {
  switch i32 %1, label %bytestream2_get_byte.exit [
    i32 1, label %4
    i32 3, label %17
    i32 4, label %37
  ]

4:                                                ; preds = %3
  %5 = getelementptr inbounds nuw i8, ptr %0, i64 8
  %6 = load ptr, ptr %5, align 8, !tbaa !10
  %7 = load ptr, ptr %0, align 8, !tbaa !14
  %8 = ptrtoint ptr %6 to i64
  %9 = ptrtoint ptr %7 to i64
  %10 = sub i64 %8, %9
  %11 = icmp slt i64 %10, 1
  br i1 %11, label %12, label %13

12:                                               ; preds = %4
  store ptr %6, ptr %0, align 8, !tbaa !14
  br label %bytestream2_get_byte.exit

13:                                               ; preds = %4
  %14 = getelementptr inbounds nuw i8, ptr %7, i64 1
  store ptr %14, ptr %0, align 8, !tbaa !15
  %15 = load i8, ptr %7, align 1, !tbaa !16
  %16 = zext i8 %15 to i32
  br label %bytestream2_get_byte.exit

17:                                               ; preds = %3
  %.not.i = icmp eq i32 %2, 0
  %18 = getelementptr inbounds nuw i8, ptr %0, i64 8
  %19 = load ptr, ptr %18, align 8, !tbaa !10
  %20 = load ptr, ptr %0, align 8, !tbaa !14
  %21 = ptrtoint ptr %19 to i64
  %22 = ptrtoint ptr %20 to i64
  %23 = sub i64 %21, %22
  %24 = icmp slt i64 %23, 2
  br i1 %.not.i, label %30, label %25

25:                                               ; preds = %17
  br i1 %24, label %26, label %27

26:                                               ; preds = %25
  store ptr %19, ptr %0, align 8, !tbaa !14
  br label %ff_tget_short.exit

27:                                               ; preds = %25
  %28 = getelementptr inbounds nuw i8, ptr %20, i64 2
  store ptr %28, ptr %0, align 8, !tbaa !15
  %29 = load i16, ptr %20, align 1, !tbaa !16
  br label %ff_tget_short.exit

30:                                               ; preds = %17
  br i1 %24, label %31, label %32

31:                                               ; preds = %30
  store ptr %19, ptr %0, align 8, !tbaa !14
  br label %ff_tget_short.exit

32:                                               ; preds = %30
  %33 = getelementptr inbounds nuw i8, ptr %20, i64 2
  store ptr %33, ptr %0, align 8, !tbaa !15
  %34 = load i16, ptr %20, align 1, !tbaa !16
  %35 = tail call i16 @llvm.bswap.i16(i16 %34)
  br label %ff_tget_short.exit

ff_tget_short.exit:                               ; preds = %26, %27, %31, %32
  %.shrunk.i = phi i16 [ 0, %26 ], [ %29, %27 ], [ 0, %31 ], [ %35, %32 ]
  %36 = zext i16 %.shrunk.i to i32
  br label %bytestream2_get_byte.exit

37:                                               ; preds = %3
  %.not.i6 = icmp eq i32 %2, 0
  %38 = getelementptr inbounds nuw i8, ptr %0, i64 8
  %39 = load ptr, ptr %38, align 8, !tbaa !10
  %40 = load ptr, ptr %0, align 8, !tbaa !14
  %41 = ptrtoint ptr %39 to i64
  %42 = ptrtoint ptr %40 to i64
  %43 = sub i64 %41, %42
  %44 = icmp slt i64 %43, 4
  br i1 %.not.i6, label %50, label %45

45:                                               ; preds = %37
  br i1 %44, label %46, label %47

46:                                               ; preds = %45
  store ptr %39, ptr %0, align 8, !tbaa !14
  br label %bytestream2_get_byte.exit

47:                                               ; preds = %45
  %48 = getelementptr inbounds nuw i8, ptr %40, i64 4
  store ptr %48, ptr %0, align 8, !tbaa !15
  %49 = load i32, ptr %40, align 1, !tbaa !16
  br label %bytestream2_get_byte.exit

50:                                               ; preds = %37
  br i1 %44, label %51, label %52

51:                                               ; preds = %50
  store ptr %39, ptr %0, align 8, !tbaa !14
  br label %bytestream2_get_byte.exit

52:                                               ; preds = %50
  %53 = getelementptr inbounds nuw i8, ptr %40, i64 4
  store ptr %53, ptr %0, align 8, !tbaa !15
  %54 = load i32, ptr %40, align 1, !tbaa !16
  %55 = tail call i32 @llvm.bswap.i32(i32 %54)
  br label %bytestream2_get_byte.exit

bytestream2_get_byte.exit:                        ; preds = %52, %51, %47, %46, %13, %12, %3, %ff_tget_short.exit
  %.0 = phi i32 [ %36, %ff_tget_short.exit ], [ -1, %3 ], [ 0, %12 ], [ %16, %13 ], [ 0, %46 ], [ %49, %47 ], [ 0, %51 ], [ %55, %52 ]
  ret i32 %.0
}